#include <math.h>
#include <stdio.h>
#include <stdlib.h>
#include <string.h>


int main()
{
	int n;
	int i,j,k,mid=0;
	scanf("%d",&n);
	char z[100010];
	int len=0;
	int ref=0;
	for(i=0;i<n;i++)
	{
		ref=0;
		scanf("%s",z);
		len=strlen(z);
		for(j=0;j<len;j++)
		{
			mid=0;
			for(k=0;k<len;k++)
			{
				if(z[j]==z[k])
				{
					mid=mid+1;
				}
			}
			if(mid==1)
			{
				printf("%c\n",z[j]);
				ref=1;
				break;
			}
		}
		if(ref==0)
		{
			printf("no\n");
		}
	}
	return 0;
}

